; Function Attrs: mustprogress nofree norecurse nosync nounwind willreturn memory(argmem: read) uwtable
define noundef zeroext i1 @_ZNK4toku12range_buffer13record_header16left_is_infiniteEv(ptr noundef nonnull readonly align 2 captures(none) dereferenceable(10) %0) local_unnamed_addr #0 align 2 {
  %2 = load i8, ptr %0, align 2, !tbaa !4, !range !10, !noundef !11
  %3 = trunc nuw i8 %2 to i1
  %4 = getelementptr inbounds nuw i8, ptr %0, i64 1
  %5 = load i8, ptr %4, align 1, !range !10
  %6 = trunc nuw i8 %5 to i1
  %7 = select i1 %3, i1 true, i1 %6
  ret i1 %7
}